ccopy_reg
_reconstructor
p0
(csklearn.pipeline
Pipeline
p1
c__builtin__
object
p2
Ntp3
Rp4
(dp5
S'steps'
p6
(lp7
(S'scale'
p8
g0
(csklearn.preprocessing.data
MinMaxScaler
p9
g2
Ntp10
Rp11
(dp12
S'copy'
p13
I01
sS'feature_range'
p14
(I0
I1
tp15
sbtp16
a(S'select_features'
p17
g0
(csklearn.decomposition.pca
PCA
p18
g2
Ntp19
Rp20
(dp21
g13
I01
sS'n_components'
p22
I10
sS'whiten'
p23
I00
sbtp24
a(S'algorithm'
p25
g0
(csklearn.tree.tree
DecisionTreeClassifier
p26
g2
Ntp27
Rp28
(dp29
S'presort'
p30
I00
sS'splitter'
p31
S'best'
p32
sS'tree_'
p33
NsS'n_features_'
p34
NsS'n_outputs_'
p35
NsS'n_classes_'
p36
NsS'random_state'
p37
I8
sS'classes_'
p38
NsS'max_features_'
p39
NsS'min_samples_leaf'
p40
I1
sS'max_features'
p41
NsS'min_weight_fraction_leaf'
p42
F0.0
sS'criterion'
p43
S'entropy'
p44
sS'max_leaf_nodes'
p45
NsS'min_samples_split'
p46
I12
sS'max_depth'
p47
I2
sS'class_weight'
p48
Nsbtp49
asb.