(dp0
S'METTS MARK'
p1
(dp2
S'to_messages'
p3
I807
sS'deferral_payments'
p4
S'NaN'
p5
sS'expenses'
p6
I94299
sS'poi'
p7
I00
sS'deferred_income'
p8
g5
sS'email_address'
p9
S'mark.metts@enron.com'
p10
sS'long_term_incentive'
p11
g5
sS'restricted_stock_deferred'
p12
g5
sS'shared_receipt_with_poi'
p13
I702
sS'loan_advances'
p14
g5
sS'from_messages'
p15
I29
sS'other'
p16
I1740
sS'to_poi_ratio'
p17
F0.034482758620689655
sS'director_fees'
p18
g5
sS'salary_v_bonus'
p19
F0.6096466666666667
sS'bonus'
p20
I600000
sS'total_stock_value'
p21
I585062
sS'from_poi_to_this_person'
p22
I38
sS'shared_receipt_with_poi_ratio'
p23
F0.8698884758364313
sS'from_this_person_to_poi'
p24
I1
sS'from_poi_ratio'
p25
F0.04708798017348203
sS'restricted_stock'
p26
I585062
sS'salary'
p27
I365788
sS'total_payments'
p28
I1061827
sS'restricted_stock_v_salary'
p29
F0.2039724374763678
sS'exercised_stock_options'
p30
g5
sS'restricted_stock_v_total_payments'
p31
F0.5509955953276758
ssS'BAXTER JOHN C'
p32
(dp33
g3
g5
sg4
I1295738
sg6
I11200
sg7
I00
sg8
I-1386055
sg9
g5
sg11
I1586055
sg12
g5
sg13
g5
sg14
g5
sg15
g5
sg16
I2660303
sg17
S'NaN'
p34
sg18
g5
sg19
F0.222585
sg20
I1200000
sg21
I10623258
sg22
g5
sg23
g34
sg24
g5
sg25
g34
sg26
I3942714
sg27
I267102
sg28
I5634343
sg29
F1.1691181350533872
sg30
I6680544
sg31
F0.6997646398169227
ssS'ELLIOTT STEVEN'
p35
(dp36
g3
g5
sg4
g5
sg6
I78552
sg7
I00
sg8
I-400729
sg9
S'steven.elliott@enron.com'
p37
sg11
g5
sg12
g5
sg13
g5
sg14
g5
sg15
g5
sg16
I12961
sg17
g34
sg18
g5
sg19
F0.48840285714285714
sg20
I350000
sg21
I6678735
sg22
g5
sg23
g34
sg24
g5
sg25
g34
sg26
I1788391
sg27
I170941
sg28
I211725
sg29
F1.019616235392435
sg30
I4890344
sg31
F8.446763490376668
ssS'CORDES WILLIAM R'
p38
(dp39
g3
I764
sg4
g5
sg6
g5
sg7
I00
sg8
g5
sg9
S'bill.cordes@enron.com'
p40
sg11
g5
sg12
g5
sg13
I58
sg14
g5
sg15
I12
sg16
g5
sg17
F0.0
sg18
g5
sg19
g34
sg20
g5
sg21
I1038185
sg22
I10
sg23
F0.07591623036649214
sg24
I0
sg25
F0.013089005235602094
sg26
I386335
sg27
g5
sg28
g5
sg29
g34
sg30
I651850
sg31
g34
ssS'HANNON KEVIN P'
p41
(dp42
g3
I1045
sg4
g5
sg6
I34039
sg7
I01
sg8
I-3117011
sg9
S'kevin.hannon@enron.com'
p43
sg11
I1617011
sg12
g5
sg13
I1035
sg14
g5
sg15
I32
sg16
I11350
sg17
F0.65625
sg18
g5
sg19
F0.16219533333333333
sg20
I1500000
sg21
I6391065
sg22
I32
sg23
F0.9904306220095693
sg24
I21
sg25
F0.03062200956937799
sg26
I853064
sg27
I243293
sg28
I288682
sg29
F0.5448520011232595
sg30
I5538001
sg31
F2.955030102327128
ssS'MORDAUNT KRISTINA M'
p44
(dp45
g3
g5
sg4
g5
sg6
I35018
sg7
I00
sg8
g5
sg9
S'kristina.mordaunt@enron.com'
p46
sg11
g5
sg12
g5
sg13
g5
sg14
g5
sg15
g5
sg16
I1411
sg17
g34
sg18
g5
sg19
F0.8218246153846154
sg20
I325000
sg21
I208510
sg22
g5
sg23
g34
sg24
g5
sg25
g34
sg26
I208510
sg27
I267093
sg28
I628522
sg29
F-0.10753561785555778
sg30
g5
sg31
F0.33174654188715746
ssS'MEYER ROCKFORD G'
p47
(dp48
g3
I232
sg4
I1848227
sg6
g5
sg7
I00
sg8
g5
sg9
S'rockford.meyer@enron.com'
p49
sg11
g5
sg12
g5
sg13
I22
sg14
g5
sg15
I28
sg16
g5
sg17
F0.0
sg18
g5
sg19
g34
sg20
g5
sg21
I955873
sg22
I0
sg23
F0.09482758620689655
sg24
I0
sg25
F0.0
sg26
I462384
sg27
g5
sg28
I1848227
sg29
g34
sg30
I493489
sg31
F0.25017706158388553
ssS'MCMAHON JEFFREY'
p50
(dp51
g3
I2355
sg4
g5
sg6
I137108
sg7
I00
sg8
g5
sg9
S'jeffrey.mcmahon@enron.com'
p52
sg11
I694862
sg12
g5
sg13
I2228
sg14
g5
sg15
I48
sg16
I297353
sg17
F0.5416666666666666
sg18
g5
sg19
F0.14248
sg20
I2600000
sg21
I1662855
sg22
I58
sg23
F0.9460721868365181
sg24
I26
sg25
F0.024628450106157114
sg26
I558801
sg27
I370448
sg28
I4099771
sg29
F0.1785299202067142
sg30
I1104054
sg31
F0.13630053971307177
ssS'HORTON STANLEY C'
p53
(dp54
g3
I2350
sg4
I3131860
sg6
g5
sg7
I00
sg8
g5
sg9
S'stanley.horton@enron.com'
p55
sg11
g5
sg12
g5
sg13
I1074
sg14
g5
sg15
I1073
sg16
g5
sg17
F0.013979496738117428
sg18
g5
sg19
g34
sg20
g5
sg21
I7256648
sg22
I44
sg23
F0.4570212765957447
sg24
I15
sg25
F0.01872340425531915
sg26
I2046079
sg27
g5
sg28
I3131860
sg29
g34
sg30
I5210569
sg31
F0.6533111314043412
ssS'PIPER GREGORY F'
p56
(dp57
g3
I1238
sg4
I1130036
sg6
I43057
sg7
I00
sg8
I-33333
sg9
S'greg.piper@enron.com'
p58
sg11
g5
sg12
I-409554
sg13
I742
sg14
g5
sg15
I222
sg16
I778
sg17
F0.21621621621621623
sg18
g5
sg19
F0.4927275
sg20
I400000
sg21
I880290
sg22
I61
sg23
F0.5993537964458805
sg24
I48
sg25
F0.049273021001615507
sg26
I409554
sg27
I197091
sg28
I1737629
sg29
F0.3176443788943497
sg30
I880290
sg31
F0.23569703314113657
ssS'HUMPHREY GENE E'
p59
(dp60
g3
I128
sg4
I2964506
sg6
I4994
sg7
I00
sg8
g5
sg9
S'gene.humphrey@enron.com'
p61
sg11
g5
sg12
g5
sg13
I119
sg14
g5
sg15
I17
sg16
g5
sg17
F1.0
sg18
g5
sg19
g34
sg20
g5
sg21
I2282768
sg22
I10
sg23
F0.9296875
sg24
I17
sg25
F0.078125
sg26
g5
sg27
I130724
sg28
I3100224
sg29
g34
sg30
I2282768
sg31
g34
ssS'UMANOFF ADAM S'
p62
(dp63
g3
I111
sg4
g5
sg6
I53122
sg7
I00
sg8
g5
sg9
S'adam.umanoff@enron.com'
p64
sg11
g5
sg12
g5
sg13
I41
sg14
g5
sg15
I18
sg16
g5
sg17
F0.0
sg18
g5
sg19
F0.36588145800316957
sg20
I788750
sg21
g5
sg22
I12
sg23
F0.36936936936936937
sg24
I0
sg25
F0.10810810810810811
sg26
g5
sg27
I288589
sg28
I1130461
sg29
g34
sg30
g5
sg31
g34
ssS'BLACHMAN JEREMY M'
p65
(dp66
g3
I2475
sg4
g5
sg6
I84208
sg7
I00
sg8
g5
sg9
S'jeremy.blachman@enron.com'
p67
sg11
I831809
sg12
g5
sg13
I2326
sg14
g5
sg15
I14
sg16
I272
sg17
F0.14285714285714285
sg18
g5
sg19
F0.2924070588235294
sg20
I850000
sg21
I954354
sg22
I25
sg23
F0.9397979797979797
sg24
I2
sg25
F0.010101010101010102
sg26
I189041
sg27
I248546
sg28
I2014835
sg29
F-0.11885077218299815
sg30
I765313
sg31
F0.09382455635324977
ssS'SUNDE MARTIN'
p68
(dp69
g3
I2647
sg4
g5
sg6
g5
sg7
I00
sg8
g5
sg9
S'marty.sunde@enron.com'
p70
sg11
I476451
sg12
g5
sg13
I2565
sg14
g5
sg15
I38
sg16
I111122
sg17
F0.34210526315789475
sg18
g5
sg19
F0.36783714285714286
sg20
I700000
sg21
I698920
sg22
I37
sg23
F0.9690215338118625
sg24
I13
sg25
F0.013978088401964487
sg26
I698920
sg27
I257486
sg28
I1545059
sg29
F0.43367384763126837
sg30
g5
sg31
F0.45235813001315806
ssS'GIBBS DANA R'
p71
(dp72
g3
I169
sg4
I504610
sg6
g5
sg7
I00
sg8
g5
sg9
S'dana.gibbs@enron.com'
p73
sg11
I461912
sg12
g5
sg13
I23
sg14
g5
sg15
I12
sg16
g5
sg17
F0.0
sg18
g5
sg19
g34
sg20
g5
sg21
I2218275
sg22
I0
sg23
F0.13609467455621302
sg24
I0
sg25
F0.0
sg26
g5
sg27
g5
sg28
I966522
sg29
g34
sg30
I2218275
sg31
g34
ssS'LOWRY CHARLES P'
p74
(dp75
g3
g5
sg4
g5
sg6
g5
sg7
I00
sg8
g5
sg9
g5
sg11
g5
sg12
I-153686
sg13
g5
sg14
g5
sg15
g5
sg16
g5
sg17
g34
sg18
g5
sg19
g34
sg20
g5
sg21
I372205
sg22
g5
sg23
g34
sg24
g5
sg25
g34
sg26
I153686
sg27
g5
sg28
g5
sg29
g34
sg30
I372205
sg31
g34
ssS'COLWELL WESLEY'
p76
(dp77
g3
I1758
sg4
I27610
sg6
I16514
sg7
I01
sg8
I-144062
sg9
S'wes.colwell@enron.com'
p78
sg11
g5
sg12
g5
sg13
I1132
sg14
g5
sg15
I40
sg16
I101740
sg17
F0.275
sg18
g5
sg19
F0.24045166666666667
sg20
I1200000
sg21
I698242
sg22
I240
sg23
F0.6439135381114903
sg24
I11
sg25
F0.13651877133105803
sg26
I698242
sg27
I288542
sg28
I1490344
sg29
F0.3837969308028908
sg30
g5
sg31
F0.4685106257347297
ssS'MULLER MARK S'
p79
(dp80
g3
I136
sg4
I842924
sg6
g5
sg7
I00
sg8
I-719000
sg9
S's..muller@enron.com'
p81
sg11
I1725545
sg12
g5
sg13
I114
sg14
g5
sg15
I16
sg16
I947
sg17
F0.0
sg18
g5
sg19
F0.22877636363636364
sg20
I1100000
sg21
I1416848
sg22
I12
sg23
F0.8382352941176471
sg24
I0
sg25
F0.08823529411764706
sg26
I360528
sg27
I251654
sg28
I3202070
sg29
F0.15613516152658502
sg30
I1056320
sg31
F0.1125921669420094
ssS'JACKSON CHARLENE R'
p82
(dp83
g3
I258
sg4
g5
sg6
I10181
sg7
I00
sg8
g5
sg9
S'charlene.jackson@enron.com'
p84
sg11
g5
sg12
g5
sg13
I117
sg14
g5
sg15
I56
sg16
I2435
sg17
F0.3392857142857143
sg18
g5
sg19
F1.154232
sg20
I250000
sg21
I725735
sg22
I25
sg23
F0.45348837209302323
sg24
I19
sg25
F0.09689922480620156
sg26
I540672
sg27
I288558
sg28
I551174
sg29
F0.2727007599547159
sg30
I185063
sg31
F0.9809461259057938
ssS'WESTFAHL RICHARD K'
p85
(dp86
g3
g5
sg4
g5
sg6
I51870
sg7
I00
sg8
I-10800
sg9
S'dick.westfahl@enron.com'
p87
sg11
I256191
sg12
g5
sg13
g5
sg14
g5
sg15
g5
sg16
I401130
sg17
g34
sg18
g5
sg19
g34
sg20
g5
sg21
I384930
sg22
g5
sg23
g34
sg24
g5
sg25
g34
sg26
I384930
sg27
I63744
sg28
I762135
sg29
F0.78094244728855
sg30
g5
sg31
F0.5050679997638213
ssS'WALTERS GARETH W'
p88
(dp89
g3
g5
sg4
I53625
sg6
I33785
sg7
I00
sg8
g5
sg9
g5
sg11
g5
sg12
g5
sg13
g5
sg14
g5
sg15
g5
sg16
g5
sg17
g34
sg18
g5
sg19
g34
sg20
g5
sg21
I1030329
sg22
g5
sg23
g34
sg24
g5
sg25
g34
sg26
g5
sg27
g5
sg28
I87410
sg29
g34
sg30
I1030329
sg31
g34
ssS'WALLS JR ROBERT H'
p90
(dp91
g3
I671
sg4
g5
sg6
I50936
sg7
I00
sg8
g5
sg9
S'rob.walls@enron.com'
p92
sg11
I540751
sg12
g5
sg13
I215
sg14
g5
sg15
I146
sg16
I2
sg17
F0.0
sg18
g5
sg19
F0.4201070588235294
sg20
I850000
sg21
I5898997
sg22
I17
sg23
F0.3204172876304024
sg24
I0
sg25
F0.02533532041728763
sg26
I1552453
sg27
I357091
sg28
I1798780
sg29
F0.6382395564057114
sg30
I4346544
sg31
F0.8630588509990105
ssS'KITCHEN LOUISE'
p93
(dp94
g3
I8305
sg4
g5
sg6
I5774
sg7
I00
sg8
g5
sg9
S'louise.kitchen@enron.com'
p95
sg11
g5
sg12
g5
sg13
I3669
sg14
g5
sg15
I1728
sg16
I93925
sg17
F0.11226851851851852
sg18
g5
sg19
F0.08756193548387096
sg20
I3100000
sg21
I547143
sg22
I251
sg23
F0.441782059000602
sg24
I194
sg25
F0.030222757375075255
sg26
I466101
sg27
I271442
sg28
I3471141
sg29
F0.23480298813890235
sg30
I81042
sg31
F0.13427890137565718
ssS'CHAN RONNIE'
p96
(dp97
g3
g5
sg4
g5
sg6
g5
sg7
I00
sg8
I-98784
sg9
g5
sg11
g5
sg12
I-32460
sg13
g5
sg14
g5
sg15
g5
sg16
g5
sg17
g34
sg18
I98784
sg19
g34
sg20
g5
sg21
g5
sg22
g5
sg23
g34
sg24
g5
sg25
g34
sg26
I32460
sg27
g5
sg28
g5
sg29
g34
sg30
g5
sg31
g34
ssS'BELFER ROBERT'
p98
(dp99
g3
g5
sg4
g34
sg6
I3285
sg7
I00
sg8
I-102500
sg9
g5
sg11
g5
sg12
I-44093
sg13
g5
sg14
g5
sg15
g5
sg16
g5
sg17
g34
sg18
I102500
sg19
g34
sg20
g5
sg21
g34
sg22
g5
sg23
g34
sg24
g5
sg25
g34
sg26
I44093
sg27
g5
sg28
I3285
sg29
g34
sg30
g34
sg31
F13.422526636225266
ssS'SHANKMAN JEFFREY A'
p100
(dp101
g3
I3221
sg4
g5
sg6
I178979
sg7
I00
sg8
g5
sg9
S'jeffrey.shankman@enron.com'
p102
sg11
I554422
sg12
g5
sg13
I1730
sg14
g5
sg15
I2681
sg16
I1191
sg17
F0.030958597538232
sg18
g5
sg19
F0.152055
sg20
I2000000
sg21
I2072035
sg22
I94
sg23
F0.5371002794163303
sg24
I83
sg25
F0.029183483390251473
sg26
I630137
sg27
I304110
sg28
I3038702
sg29
F0.31640427978808133
sg30
I1441898
sg31
F0.20737044961960732
ssS'WODRASKA JOHN'
p103
(dp104
g3
g5
sg4
g5
sg6
g5
sg7
I00
sg8
g5
sg9
S'john.wodraska@enron.com'
p105
sg11
g5
sg12
g5
sg13
g5
sg14
g5
sg15
g5
sg16
I189583
sg17
g34
sg18
g5
sg19
g34
sg20
g5
sg21
g5
sg22
g5
sg23
g34
sg24
g5
sg25
g34
sg26
g5
sg27
g5
sg28
I189583
sg29
g34
sg30
g5
sg31
g34
ssS'BERGSIEKER RICHARD P'
p106
(dp107
g3
I383
sg4
g5
sg6
I59175
sg7
I00
sg8
I-485813
sg9
S'rick.bergsieker@enron.com'
p108
sg11
I180250
sg12
g5
sg13
I233
sg14
g5
sg15
I59
sg16
I427316
sg17
F0.0
sg18
g5
sg19
F0.751688
sg20
I250000
sg21
I659249
sg22
I4
sg23
F0.608355091383812
sg24
I0
sg25
F0.010443864229765013
sg26
I659249
sg27
I187922
sg28
I618850
sg29
F0.5450718538285511
sg30
g5
sg31
F1.0652807627050174
ssS'URQUHART JOHN A'
p109
(dp110
g3
g5
sg4
g5
sg6
I228656
sg7
I00
sg8
I-36666
sg9
g5
sg11
g5
sg12
g5
sg13
g5
sg14
g5
sg15
g5
sg16
g5
sg17
g34
sg18
I36666
sg19
g34
sg20
g5
sg21
g5
sg22
g5
sg23
g34
sg24
g5
sg25
g34
sg26
g5
sg27
g5
sg28
I228656
sg29
g34
sg30
g5
sg31
g34
ssS'BIBI PHILIPPE A'
p111
(dp112
g3
I1607
sg4
g5
sg6
I38559
sg7
I00
sg8
g5
sg9
S'philippe.bibi@enron.com'
p113
sg11
I369721
sg12
g5
sg13
I1336
sg14
g5
sg15
I40
sg16
I425688
sg17
F0.2
sg18
g5
sg19
F0.213625
sg20
I1000000
sg21
I1843816
sg22
I23
sg23
F0.8313627878033603
sg24
I8
sg25
F0.01431238332296204
sg26
I378082
sg27
I213625
sg28
I2047593
sg29
F0.24793392592161026
sg30
I1465734
sg31
F0.1846470465566155
ssS'RIEKER PAULA H'
p114
(dp115
g3
I1328
sg4
I214678
sg6
I33271
sg7
I01
sg8
I-100000
sg9
S'paula.rieker@enron.com'
p116
sg11
g5
sg12
g5
sg13
I1258
sg14
g5
sg15
I82
sg16
I1950
sg17
F0.5853658536585366
sg18
g5
sg19
F0.3560014285714286
sg20
I700000
sg21
I1918887
sg22
I35
sg23
F0.947289156626506
sg24
I48
sg25
F0.02635542168674699
sg26
I283649
sg27
I249201
sg28
I1099100
sg29
F0.05623147606681151
sg30
I1635238
sg31
F0.2580738786279683
ssS'WHALEY DAVID A'
p117
(dp118
g3
g5
sg4
g5
sg6
g5
sg7
I00
sg8
g5
sg9
g5
sg11
g5
sg12
g5
sg13
g5
sg14
g5
sg15
g5
sg16
g5
sg17
g34
sg18
g5
sg19
g34
sg20
g5
sg21
I98718
sg22
g5
sg23
g34
sg24
g5
sg25
g34
sg26
g5
sg27
g5
sg28
g5
sg29
g34
sg30
I98718
sg31
g34
ssS'BECK SALLY W'
p119
(dp120
g3
I7315
sg4
g5
sg6
I37172
sg7
I00
sg8
g5
sg9
S'sally.beck@enron.com'
p121
sg11
g5
sg12
g5
sg13
I2639
sg14
g5
sg15
I4343
sg16
I566
sg17
F0.08887865530739121
sg18
g5
sg19
F0.3304714285714286
sg20
I700000
sg21
I126027
sg22
I144
sg23
F0.36076555023923446
sg24
I386
sg25
F0.01968557758031442
sg26
I126027
sg27
I231330
sg28
I969068
sg29
F-0.26376835959334083
sg30
g5
sg31
F0.13004969723486898
ssS'HAUG DAVID L'
p122
(dp123
g3
I573
sg4
g5
sg6
I475
sg7
I00
sg8
g5
sg9
S'david.haug@enron.com'
p124
sg11
g5
sg12
g5
sg13
I471
sg14
g5
sg15
I19
sg16
g5
sg17
F0.3684210526315789
sg18
g5
sg19
g34
sg20
g5
sg21
I2217299
sg22
I4
sg23
F0.8219895287958116
sg24
I7
sg25
F0.006980802792321117
sg26
I2217299
sg27
g5
sg28
I475
sg29
g34
sg30
g5
sg31
F4667.997894736842
ssS'ECHOLS JOHN B'
p125
(dp126
g3
g5
sg4
g5
sg6
I21530
sg7
I00
sg8
g5
sg9
S'john.echols@enron.com'
p127
sg11
I2234774
sg12
g5
sg13
g5
sg14
g5
sg15
g5
sg16
I53775
sg17
g34
sg18
g5
sg19
F0.911225
sg20
I200000
sg21
I1008941
sg22
g5
sg23
g34
sg24
g5
sg25
g34
sg26
I407503
sg27
I182245
sg28
I2692324
sg29
F0.3494751882982479
sg30
I601438
sg31
F0.15135734034982418
ssS'MENDELSOHN JOHN'
p128
(dp129
g3
g5
sg4
g5
sg6
I148
sg7
I00
sg8
I-103750
sg9
g5
sg11
g5
sg12
g5
sg13
g5
sg14
g5
sg15
g5
sg16
g5
sg17
g34
sg18
I103750
sg19
g34
sg20
g5
sg21
g5
sg22
g5
sg23
g34
sg24
g5
sg25
g34
sg26
g5
sg27
g5
sg28
I148
sg29
g34
sg30
g5
sg31
g34
ssS'HICKERSON GARY J'
p130
(dp131
g3
I1320
sg4
g5
sg6
I98849
sg7
I00
sg8
g5
sg9
S'gary.hickerson@enron.com'
p132
sg11
I69223
sg12
g5
sg13
I900
sg14
g5
sg15
I27
sg16
I1936
sg17
F0.037037037037037035
sg18
g5
sg19
F0.12458117647058824
sg20
I1700000
sg21
I441096
sg22
I40
sg23
F0.6818181818181818
sg24
I1
sg25
F0.030303030303030304
sg26
I441096
sg27
I211788
sg28
I2081796
sg29
F0.31863177031987805
sg30
g5
sg31
F0.21188243228443132
ssS'CLINE KENNETH W'
p133
(dp134
g3
g5
sg4
g5
sg6
g5
sg7
I00
sg8
g5
sg9
g5
sg11
g5
sg12
I-472568
sg13
g5
sg14
g5
sg15
g5
sg16
g5
sg17
g34
sg18
g5
sg19
g34
sg20
g5
sg21
I189518
sg22
g5
sg23
g34
sg24
g5
sg25
g34
sg26
I662086
sg27
g5
sg28
g5
sg29
g34
sg30
g5
sg31
g34
ssS'LEWIS RICHARD'
p135
(dp136
g3
I952
sg4
g5
sg6
g5
sg7
I00
sg8
g5
sg9
S'richard.lewis@enron.com'
p137
sg11
g5
sg12
g5
sg13
I739
sg14
g5
sg15
I26
sg16
g5
sg17
F0.0
sg18
g5
sg19
g34
sg20
g5
sg21
I850477
sg22
I10
sg23
F0.7762605042016807
sg24
I0
sg25
F0.01050420168067227
sg26
g5
sg27
g5
sg28
g5
sg29
g34
sg30
I850477
sg31
g34
ssS'HAYES ROBERT E'
p138
(dp139
g3
I504
sg4
I7961
sg6
g5
sg7
I00
sg8
g5
sg9
S'robert.hayes@enron.com'
p140
sg11
g5
sg12
g5
sg13
I50
sg14
g5
sg15
I12
sg16
g5
sg17
F0.0
sg18
g5
sg19
g34
sg20
g5
sg21
I151418
sg22
I16
sg23
F0.0992063492063492
sg24
I0
sg25
F0.031746031746031744
sg26
I151418
sg27
g5
sg28
I7961
sg29
g34
sg30
g5
sg31
F19.019972365280744
ssS'MCCARTY DANNY J'
p141
(dp142
g3
I1433
sg4
g5
sg6
g5
sg7
I00
sg8
g5
sg9
S'danny.mccarty@enron.com'
p143
sg11
g5
sg12
g5
sg13
I508
sg14
g5
sg15
I215
sg16
g5
sg17
F0.009302325581395349
sg18
g5
sg19
g34
sg20
g5
sg21
I758931
sg22
I25
sg23
F0.35450104675505933
sg24
I2
sg25
F0.017445917655268667
sg26
I94556
sg27
g5
sg28
g5
sg29
g34
sg30
I664375
sg31
g34
ssS'KOPPER MICHAEL J'
p144
(dp145
g3
g5
sg4
g5
sg6
I118134
sg7
I01
sg8
g5
sg9
S'michael.kopper@enron.com'
p146
sg11
I602671
sg12
g5
sg13
g5
sg14
g5
sg15
g5
sg16
I907502
sg17
g34
sg18
g5
sg19
F0.28038125
sg20
I800000
sg21
I985032
sg22
g5
sg23
g34
sg24
g5
sg25
g34
sg26
I985032
sg27
I224305
sg28
I2652612
sg29
F0.642611384745191
sg30
g5
sg31
F0.3713441694450602
ssS'LEFF DANIEL P'
p147
(dp148
g3
I2822
sg4
g5
sg6
g5
sg7
I00
sg8
g5
sg9
S'dan.leff@enron.com'
p149
sg11
I1387399
sg12
g5
sg13
I2672
sg14
g5
sg15
I63
sg16
I3083
sg17
F0.2222222222222222
sg18
g5
sg19
F0.273746
sg20
I1000000
sg21
I360528
sg22
I67
sg23
F0.9468462083628633
sg24
I14
sg25
F0.02374202693125443
sg26
I360528
sg27
I273746
sg28
I2664228
sg29
F0.11959121740942656
sg30
g5
sg31
F0.13532175174196803
ssS'LAVORATO JOHN J'
p150
(dp151
g3
I7259
sg4
g5
sg6
I49537
sg7
I00
sg8
g5
sg9
S'john.lavorato@enron.com'
p152
sg11
I2035380
sg12
g5
sg13
I3962
sg14
g5
sg15
I2585
sg16
I1552
sg17
F0.15899419729206962
sg18
g5
sg19
F0.042411
sg20
I8000000
sg21
I5167144
sg22
I528
sg23
F0.5458052073288332
sg24
I411
sg25
F0.07273729163796666
sg26
I1008149
sg27
I339288
sg28
I10425757
sg29
F0.4729562239625262
sg30
I4158995
sg31
F0.09669791843412426
ssS'BERBERIAN DAVID'
p153
(dp154
g3
g5
sg4
g5
sg6
I11892
sg7
I00
sg8
g5
sg9
S'david.berberian@enron.com'
p155
sg11
g5
sg12
g5
sg13
g5
sg14
g5
sg15
g5
sg16
g5
sg17
g34
sg18
g5
sg19
g34
sg20
g5
sg21
I2493616
sg22
g5
sg23
g34
sg24
g5
sg25
g34
sg26
I869220
sg27
I216582
sg28
I228474
sg29
F0.6035073506682329
sg30
I1624396
sg31
F3.8044591507129915
ssS'DETMERING TIMOTHY J'
p156
(dp157
g3
g5
sg4
I875307
sg6
I52255
sg7
I00
sg8
I-775241
sg9
S'timothy.detmering@enron.com'
p158
sg11
I415657
sg12
I-315068
sg13
g5
sg14
g5
sg15
g5
sg16
I1105
sg17
g34
sg18
g5
sg19
F0.49529411764705883
sg20
I425000
sg21
I2027865
sg22
g5
sg23
g34
sg24
g5
sg25
g34
sg26
I315068
sg27
I210500
sg28
I1204583
sg29
F0.17515219595964185
sg30
I2027865
sg31
F0.2615577340872319
ssS'WAKEHAM JOHN'
p159
(dp160
g3
g5
sg4
g5
sg6
I103773
sg7
I00
sg8
g5
sg9
g5
sg11
g5
sg12
g5
sg13
g5
sg14
g5
sg15
g5
sg16
g5
sg17
g34
sg18
I109298
sg19
g34
sg20
g5
sg21
g5
sg22
g5
sg23
g34
sg24
g5
sg25
g34
sg26
g5
sg27
g5
sg28
I213071
sg29
g34
sg30
g5
sg31
g34
ssS'POWERS WILLIAM'
p161
(dp162
g3
I653
sg4
g5
sg6
g5
sg7
I00
sg8
I-17500
sg9
S'ken.powers@enron.com'
p163
sg11
g5
sg12
g5
sg13
I12
sg14
g5
sg15
I26
sg16
g5
sg17
F0.0
sg18
I17500
sg19
g34
sg20
g5
sg21
g5
sg22
I0
sg23
F0.018376722817764167
sg24
I0
sg25
F0.0
sg26
g5
sg27
g5
sg28
g5
sg29
g34
sg30
g5
sg31
g34
ssS'GOLD JOSEPH'
p164
(dp165
g3
g5
sg4
g5
sg6
g5
sg7
I00
sg8
g5
sg9
S'joe.gold@enron.com'
p166
sg11
I304805
sg12
g5
sg13
g5
sg14
g5
sg15
g5
sg16
I819288
sg17
g34
sg18
g5
sg19
F0.36384
sg20
I750000
sg21
I877611
sg22
g5
sg23
g34
sg24
g5
sg25
g34
sg26
I441096
sg27
I272880
sg28
I2146973
sg29
F0.20856141307527096
sg30
I436515
sg31
F0.2054501849813668
ssS'BANNANTINE JAMES M'
p167
(dp168
g3
I566
sg4
g5
sg6
I56301
sg7
I00
sg8
I-5104
sg9
S'james.bannantine@enron.com'
p169
sg11
g5
sg12
I-560222
sg13
I465
sg14
g5
sg15
I29
sg16
I864523
sg17
F0.0
sg18
g5
sg19
g34
sg20
g5
sg21
I5243487
sg22
I39
sg23
F0.8215547703180212
sg24
I0
sg25
F0.06890459363957598
sg26
I1757552
sg27
I477
sg28
I916197
sg29
F3.5663898041419175
sg30
I4046157
sg31
F1.918312328025523
ssS'DUNCAN JOHN H'
p170
(dp171
g3
g5
sg4
g5
sg6
g5
sg7
I00
sg8
I-25000
sg9
g5
sg11
g5
sg12
g5
sg13
g5
sg14
g5
sg15
g5
sg16
g5
sg17
g34
sg18
I102492
sg19
g34
sg20
g5
sg21
I371750
sg22
g5
sg23
g34
sg24
g5
sg25
g34
sg26
g5
sg27
g5
sg28
I77492
sg29
g34
sg30
I371750
sg31
g34
ssS'SHAPIRO RICHARD S'
p172
(dp173
g3
I15149
sg4
g5
sg6
I137767
sg7
I00
sg8
g5
sg9
S'richard.shapiro@enron.com'
p174
sg11
g5
sg12
g5
sg13
I4527
sg14
g5
sg15
I1215
sg16
I705
sg17
F0.053497942386831275
sg18
g5
sg19
F0.41396307692307693
sg20
I650000
sg21
I987001
sg22
I74
sg23
F0.29883160604660375
sg24
I65
sg25
F0.0048848108786058485
sg26
I379164
sg27
I269076
sg28
I1057548
sg29
F0.14895213324770895
sg30
I607837
sg31
F0.35853124397190483
ssS'SHERRIFF JOHN R'
p175
(dp176
g3
I3187
sg4
g5
sg6
g5
sg7
I00
sg8
g5
sg9
S'john.sherriff@enron.com'
p177
sg11
I554422
sg12
g5
sg13
I2103
sg14
g5
sg15
I92
sg16
I1852186
sg17
F0.25
sg18
g5
sg19
F0.28585333333333335
sg20
I1500000
sg21
I3128982
sg22
I28
sg23
F0.6598682146219015
sg24
I23
sg25
F0.008785691873235017
sg26
I1293424
sg27
I428780
sg28
I4335388
sg29
F0.4795063952539694
sg30
I1835558
sg31
F0.29834100200489555
ssS'SHELBY REX'
p178
(dp179
g3
I225
sg4
g5
sg6
I22884
sg7
I01
sg8
I-4167
sg9
S'rex.shelby@enron.com'
p180
sg11
g5
sg12
g5
sg13
I91
sg14
g5
sg15
I39
sg16
I1573324
sg17
F0.358974358974359
sg18
g5
sg19
F1.05922
sg20
I200000
sg21
I2493616
sg22
I13
sg23
F0.40444444444444444
sg24
I14
sg25
F0.057777777777777775
sg26
I869220
sg27
I211844
sg28
I2003885
sg29
F0.6131135423969593
sg30
I1624396
sg31
F0.43376740681226716
ssS'LEMAISTRE CHARLES'
p181
(dp182
g3
g5
sg4
g5
sg6
g5
sg7
I00
sg8
I-25000
sg9
g5
sg11
g5
sg12
g5
sg13
g5
sg14
g5
sg15
g5
sg16
g5
sg17
g34
sg18
I112492
sg19
g34
sg20
g5
sg21
I412878
sg22
g5
sg23
g34
sg24
g5
sg25
g34
sg26
g5
sg27
g5
sg28
I87492
sg29
g34
sg30
I412878
sg31
g34
ssS'DEFFNER JOSEPH M'
p183
(dp184
g3
I714
sg4
g5
sg6
I41626
sg7
I00
sg8
g5
sg9
S'joseph.deffner@enron.com'
p185
sg11
I335349
sg12
g5
sg13
I552
sg14
g5
sg15
I74
sg16
I25553
sg17
F0.05405405405405406
sg18
g5
sg19
F0.343535
sg20
I600000
sg21
I159211
sg22
I115
sg23
F0.773109243697479
sg24
I4
sg25
F0.16106442577030813
sg26
I141833
sg27
I206121
sg28
I1208649
sg29
F-0.1623449517510265
sg30
I17378
sg31
F0.11734837823056983
ssS'KISHKILL JOSEPH G'
p186
(dp187
g3
g5
sg4
g5
sg6
I116335
sg7
I00
sg8
I-51042
sg9
S'joe.kishkill@enron.com'
p188
sg11
g5
sg12
g5
sg13
g5
sg14
g5
sg15
g5
sg16
I465357
sg17
g34
sg18
g5
sg19
g34
sg20
g5
sg21
I1034346
sg22
g5
sg23
g34
sg24
g5
sg25
g34
sg26
I1034346
sg27
I174246
sg28
I704896
sg29
F0.7735030220964588
sg30
g5
sg31
F1.467373910477574
ssS'WHALLEY LAWRENCE G'
p189
(dp190
g3
I6019
sg4
g5
sg6
I57838
sg7
I00
sg8
g5
sg9
S'greg.whalley@enron.com'
p191
sg11
I808346
sg12
g5
sg13
I3920
sg14
g5
sg15
I556
sg16
I301026
sg17
F0.04316546762589928
sg18
g5
sg19
F0.17012133333333335
sg20
I3000000
sg21
I6079137
sg22
I186
sg23
F0.6512709752450573
sg24
I24
sg25
F0.03090214321315833
sg26
I2796177
sg27
I510364
sg28
I4677574
sg29
F0.73868462651765
sg30
I3282960
sg31
F0.5977835946582566
ssS'MCCONNELL MICHAEL S'
p192
(dp193
g3
I3329
sg4
g5
sg6
I81364
sg7
I00
sg8
g5
sg9
S'mike.mcconnell@enron.com'
p194
sg11
I554422
sg12
g5
sg13
I2189
sg14
g5
sg15
I2742
sg16
I540
sg17
F0.07075127644055434
sg18
g5
sg19
F0.3318527272727273
sg20
I1100000
sg21
I3101279
sg22
I92
sg23
F0.657554821267648
sg24
I194
sg25
F0.02763592670471613
sg26
I1478269
sg27
I365038
sg28
I2101364
sg29
F0.6074153933146891
sg30
I1623010
sg31
F0.7034806915888918
ssS'PIRO JIM'
p195
(dp196
g3
I58
sg4
g5
sg6
g5
sg7
I00
sg8
g5
sg9
S'jim.piro@enron.com'
p197
sg11
g5
sg12
g5
sg13
I3
sg14
g5
sg15
I16
sg16
g5
sg17
F0.0625
sg18
g5
sg19
g34
sg20
g5
sg21
I47304
sg22
I0
sg23
F0.05172413793103448
sg24
I1
sg25
F0.0
sg26
I47304
sg27
g5
sg28
g5
sg29
g34
sg30
g5
sg31
g34
ssS'DELAINEY DAVID W'
p198
(dp199
g3
I3093
sg4
g5
sg6
I86174
sg7
I01
sg8
g5
sg9
S'david.delainey@enron.com'
p200
sg11
I1294981
sg12
g5
sg13
I2097
sg14
g5
sg15
I3069
sg16
I1661
sg17
F0.198435972629521
sg18
g5
sg19
F0.121721
sg20
I3000000
sg21
I3614261
sg22
I66
sg23
F0.6779825412221144
sg24
I609
sg25
F0.02133850630455868
sg26
I1323148
sg27
I365163
sg28
I4747979
sg29
F0.5591216583068472
sg30
I2291113
sg31
F0.2786760430069299
ssS'SULLIVAN-SHAKLOVITZ COLLEEN'
p201
(dp202
g3
g5
sg4
I181993
sg6
g5
sg7
I00
sg8
g5
sg9
g5
sg11
I554422
sg12
g5
sg13
g5
sg14
g5
sg15
g5
sg16
I162
sg17
g34
sg18
g5
sg19
F1.62779
sg20
I100000
sg21
I1362375
sg22
g5
sg23
g34
sg24
g5
sg25
g34
sg26
g5
sg27
I162779
sg28
I999356
sg29
g34
sg30
I1362375
sg31
g34
ssS'WROBEL BRUCE'
p203
(dp204
g3
g5
sg4
g5
sg6
g5
sg7
I00
sg8
g5
sg9
g5
sg11
g5
sg12
g5
sg13
g5
sg14
g5
sg15
g5
sg16
g5
sg17
g34
sg18
g5
sg19
g34
sg20
g5
sg21
I139130
sg22
g5
sg23
g34
sg24
g5
sg25
g34
sg26
g5
sg27
g5
sg28
g5
sg29
g34
sg30
I139130
sg31
g34
ssS'LINDHOLM TOD A'
p205
(dp206
g3
g5
sg4
I204075
sg6
I57727
sg7
I00
sg8
g5
sg9
S'tod.lindholm@enron.com'
p207
sg11
I175000
sg12
g5
sg13
g5
sg14
g5
sg15
g5
sg16
I2630
sg17
g34
sg18
g5
sg19
F1.182285
sg20
I200000
sg21
I3064208
sg22
g5
sg23
g34
sg24
g5
sg25
g34
sg26
I514847
sg27
I236457
sg28
I875889
sg29
F0.33792601120112864
sg30
I2549361
sg31
F0.5877993672714237
ssS'MEYER JEROME J'
p208
(dp209
g3
g5
sg4
g5
sg6
I2151
sg7
I00
sg8
I-38346
sg9
g5
sg11
g5
sg12
g5
sg13
g5
sg14
g5
sg15
g5
sg16
g5
sg17
g34
sg18
I38346
sg19
g34
sg20
g5
sg21
g5
sg22
g5
sg23
g34
sg24
g5
sg25
g34
sg26
g5
sg27
g5
sg28
I2151
sg29
g34
sg30
g5
sg31
g34
ssS'LAY KENNETH L'
p210
(dp211
g3
I4273
sg4
I202911
sg6
I99832
sg7
I01
sg8
I-300000
sg9
S'kenneth.lay@enron.com'
p212
sg11
I3600000
sg12
g5
sg13
I2411
sg14
I81525000
sg15
I36
sg16
I10359729
sg17
F0.4444444444444444
sg18
g5
sg19
F0.1531887142857143
sg20
I7000000
sg21
I49110078
sg22
I123
sg23
F0.5642405803884858
sg24
I16
sg25
F0.028785396676807865
sg26
I14761694
sg27
I1072321
sg28
I103559793
sg29
F1.1388113872921057
sg30
I34348384
sg31
F0.1425427144297208
ssS'BUTTS ROBERT H'
p213
(dp214
g3
g5
sg4
g5
sg6
I9410
sg7
I00
sg8
I-75000
sg9
S'bob.butts@enron.com'
p215
sg11
I175000
sg12
g5
sg13
g5
sg14
g5
sg15
g5
sg16
I150656
sg17
g34
sg18
g5
sg19
F0.348688
sg20
I750000
sg21
I417619
sg22
g5
sg23
g34
sg24
g5
sg25
g34
sg26
I417619
sg27
I261516
sg28
I1271582
sg29
F0.20328198420993154
sg30
g5
sg31
F0.32842474964257123
ssS'OLSON CINDY K'
p216
(dp217
g3
I1184
sg4
I77716
sg6
I63791
sg7
I00
sg8
g5
sg9
S'cindy.olson@enron.com'
p218
sg11
I100000
sg12
g5
sg13
I856
sg14
g5
sg15
I52
sg16
I972
sg17
F0.28846153846153844
sg18
g5
sg19
F0.43877066666666664
sg20
I750000
sg21
I2606763
sg22
I20
sg23
F0.722972972972973
sg24
I15
sg25
F0.016891891891891893
sg26
I969729
sg27
I329078
sg28
I1321557
sg29
F0.4693515343147968
sg30
I1637034
sg31
F0.7337776577173742
ssS'MCDONALD REBECCA'
p219
(dp220
g3
I894
sg4
g5
sg6
g5
sg7
I00
sg8
g5
sg9
S'rebecca.mcdonald@enron.com'
p221
sg11
g5
sg12
g5
sg13
I720
sg14
g5
sg15
I13
sg16
g5
sg17
F0.07692307692307693
sg18
g5
sg19
g34
sg20
g5
sg21
I1691366
sg22
I54
sg23
F0.8053691275167785
sg24
I1
sg25
F0.06040268456375839
sg26
I934065
sg27
g5
sg28
g5
sg29
g34
sg30
I757301
sg31
g34
ssS'CUMBERLAND MICHAEL S'
p222
(dp223
g3
g5
sg4
g5
sg6
I22344
sg7
I00
sg8
g5
sg9
g5
sg11
I275000
sg12
g5
sg13
g5
sg14
g5
sg15
g5
sg16
I713
sg17
g34
sg18
g5
sg19
F0.56892
sg20
I325000
sg21
I207940
sg22
g5
sg23
g34
sg24
g5
sg25
g34
sg26
I207940
sg27
I184899
sg28
I807956
sg29
F0.0510034772906002
sg30
g5
sg31
F0.2573655001014907
ssS'GAHN ROBERT S'
p224
(dp225
g3
g5
sg4
I73122
sg6
I50080
sg7
I00
sg8
I-1042
sg9
g5
sg11
g5
sg12
g5
sg13
g5
sg14
g5
sg15
g5
sg16
I76547
sg17
g34
sg18
g5
sg19
F0.3765822660678212
sg20
I509870
sg21
I318607
sg22
g5
sg23
g34
sg24
g5
sg25
g34
sg26
I235370
sg27
I192008
sg28
I900585
sg29
F0.08843178341030562
sg30
I83237
sg31
F0.2613523431991428
ssS'MCCLELLAN GEORGE'
p226
(dp227
g3
I1744
sg4
g5
sg6
I228763
sg7
I00
sg8
I-125000
sg9
S'george.mcclellan@enron.com'
p228
sg11
g5
sg12
g5
sg13
I1469
sg14
g5
sg15
I49
sg16
I51587
sg17
F0.0
sg18
g5
sg19
F0.2926811111111111
sg20
I900000
sg21
I947861
sg22
I52
sg23
F0.8423165137614679
sg24
I0
sg25
F0.02981651376146789
sg26
I441096
sg27
I263413
sg28
I1318763
sg29
F0.22389591495004058
sg30
I506765
sg31
F0.3344770819320833
ssS'HERMANN ROBERT J'
p229
(dp230
g3
g5
sg4
g5
sg6
I48357
sg7
I00
sg8
I-280000
sg9
S'robert.hermann@enron.com'
p231
sg11
I150000
sg12
g5
sg13
g5
sg14
g5
sg15
g5
sg16
I416441
sg17
g34
sg18
g5
sg19
F0.37523285714285715
sg20
I700000
sg21
I668132
sg22
g5
sg23
g34
sg24
g5
sg25
g34
sg26
I480632
sg27
I262663
sg28
I1297461
sg29
F0.2624137820835137
sg30
I187500
sg31
F0.3704404217159514
ssS'SCRIMSHAW MATTHEW'
p232
(dp233
g3
g5
sg4
g5
sg6
g5
sg7
I00
sg8
g5
sg9
S'matthew.scrimshaw@enron.com'
p234
sg11
g5
sg12
g5
sg13
g5
sg14
g5
sg15
g5
sg16
g5
sg17
g34
sg18
g5
sg19
g34
sg20
g5
sg21
I759557
sg22
g5
sg23
g34
sg24
g5
sg25
g34
sg26
g5
sg27
g5
sg28
g5
sg29
g34
sg30
I759557
sg31
g34
ssS'GATHMANN WILLIAM D'
p235
(dp236
g3
g5
sg4
g5
sg6
g5
sg7
I00
sg8
g5
sg9
g5
sg11
g5
sg12
I-72419
sg13
g5
sg14
g5
sg15
g5
sg16
g5
sg17
g34
sg18
g5
sg19
g34
sg20
g5
sg21
I1945360
sg22
g5
sg23
g34
sg24
g5
sg25
g34
sg26
I264013
sg27
g5
sg28
g5
sg29
g34
sg30
I1753766
sg31
g34
ssS'HAEDICKE MARK E'
p237
(dp238
g3
I4009
sg4
I2157527
sg6
I76169
sg7
I00
sg8
I-934484
sg9
S'mark.haedicke@enron.com'
p239
sg11
I983346
sg12
I-329825
sg13
I1847
sg14
g5
sg15
I1941
sg16
I52382
sg17
F0.03142709943328181
sg18
g5
sg19
F0.32532608695652177
sg20
I1150000
sg21
I803094
sg22
I180
sg23
F0.4607133948615615
sg24
I61
sg25
F0.04489897730107259
sg26
I524169
sg27
I374125
sg28
I3859065
sg29
F0.1464546028114674
sg30
I608750
sg31
F0.1358279790571032
ssS'BOWEN JR RAYMOND M'
p240
(dp241
g3
I1858
sg4
g5
sg6
I65907
sg7
I01
sg8
I-833
sg9
S'raymond.bowen@enron.com'
p242
sg11
I974293
sg12
g5
sg13
I1593
sg14
g5
sg15
I27
sg16
I1621
sg17
F0.5555555555555556
sg18
g5
sg19
F0.20637111111111112
sg20
I1350000
sg21
I252055
sg22
I140
sg23
F0.8573735199138859
sg24
I15
sg25
F0.07534983853606028
sg26
I252055
sg27
I278601
sg28
I2669589
sg29
F-0.04348735399774701
sg30
g5
sg31
F0.09441715559960728
ssS'GILLIS JOHN'
p243
(dp244
g3
g5
sg4
g5
sg6
g5
sg7
I00
sg8
g5
sg9
g5
sg11
g5
sg12
g5
sg13
g5
sg14
g5
sg15
g5
sg16
g5
sg17
g34
sg18
g5
sg19
g34
sg20
g5
sg21
I85641
sg22
g5
sg23
g34
sg24
g5
sg25
g34
sg26
I75838
sg27
g5
sg28
g5
sg29
g34
sg30
I9803
sg31
g34
ssS'FITZGERALD JAY L'
p245
(dp246
g3
I936
sg4
g5
sg6
I23870
sg7
I00
sg8
g5
sg9
S'jay.fitzgerald@enron.com'
p247
sg11
I556416
sg12
g5
sg13
I723
sg14
g5
sg15
I16
sg16
I285414
sg17
F0.5
sg18
g5
sg19
F0.56902
sg20
I350000
sg21
I1621236
sg22
I1
sg23
F0.7724358974358975
sg24
I8
sg25
F0.0010683760683760685
sg26
I956775
sg27
I199157
sg28
I1414857
sg29
F0.6816142432577228
sg30
I664461
sg31
F0.6762344180365931
ssS'MORAN MICHAEL P'
p248
(dp249
g3
I672
sg4
g5
sg6
g5
sg7
I00
sg8
g5
sg9
S'michael.moran@enron.com'
p250
sg11
g5
sg12
g5
sg13
I127
sg14
g5
sg15
I19
sg16
g5
sg17
F0.0
sg18
g5
sg19
g34
sg20
g5
sg21
I221141
sg22
I0
sg23
F0.18898809523809523
sg24
I0
sg25
F0.0
sg26
I161602
sg27
g5
sg28
g5
sg29
g34
sg30
I59539
sg31
g34
ssS'REDMOND BRIAN L'
p251
(dp252
g3
I1671
sg4
g5
sg6
I14689
sg7
I00
sg8
g5
sg9
S'brian.redmond@enron.com'
p253
sg11
g5
sg12
g5
sg13
I1063
sg14
g5
sg15
I221
sg16
g5
sg17
F0.22171945701357465
sg18
g5
sg19
g34
sg20
g5
sg21
I7890324
sg22
I204
sg23
F0.6361460203470976
sg24
I49
sg25
F0.12208258527827648
sg26
I381285
sg27
I96840
sg28
I111529
sg29
F0.5951949394125314
sg30
I7509039
sg31
F3.4187072420626023
ssS'BAZELIDES PHILIP J'
p254
(dp255
g3
g5
sg4
I684694
sg6
g5
sg7
I00
sg8
g5
sg9
g5
sg11
I93750
sg12
g5
sg13
g5
sg14
g5
sg15
g5
sg16
I874
sg17
g34
sg18
g5
sg19
g34
sg20
g5
sg21
I1599641
sg22
g5
sg23
g34
sg24
g5
sg25
g34
sg26
g5
sg27
I80818
sg28
I860136
sg29
g34
sg30
I1599641
sg31
g34
ssS'BELDEN TIMOTHY N'
p256
(dp257
g3
I7991
sg4
I2144013
sg6
I17355
sg7
I01
sg8
I-2334434
sg9
S'tim.belden@enron.com'
p258
sg11
g5
sg12
g5
sg13
I5521
sg14
g5
sg15
I484
sg16
I210698
sg17
F0.2231404958677686
sg18
g5
sg19
F0.04076172204985182
sg20
I5249999
sg21
I1110705
sg22
I228
sg23
F0.6909022650481792
sg24
I108
sg25
F0.028532098610937303
sg26
I157569
sg27
I213999
sg28
I5501630
sg29
F-0.13294096512525558
sg30
I953136
sg31
F0.02864042111156148
ssS'DURAN WILLIAM D'
p259
(dp260
g3
I904
sg4
g5
sg6
I25785
sg7
I00
sg8
g5
sg9
S'w.duran@enron.com'
p261
sg11
I1105218
sg12
g5
sg13
I599
sg14
g5
sg15
I12
sg16
I1568
sg17
F0.25
sg18
g5
sg19
F0.28092266666666665
sg20
I750000
sg21
I1640910
sg22
I106
sg23
F0.6626106194690266
sg24
I3
sg25
F0.1172566371681416
sg26
I189041
sg27
I210692
sg28
I2093263
sg29
F-0.04709203972222249
sg30
I1451869
sg31
F0.09030924446665325
ssS'THORN TERENCE H'
p262
(dp263
g3
I266
sg4
I16586
sg6
I46145
sg7
I00
sg8
g5
sg9
S'terence.thorn@enron.com'
p264
sg11
I200000
sg12
g5
sg13
I73
sg14
g5
sg15
I41
sg16
I426629
sg17
F0.0
sg18
g5
sg19
g34
sg20
g5
sg21
I4817796
sg22
I0
sg23
F0.2744360902255639
sg24
I0
sg25
F0.0
sg26
I365320
sg27
I222093
sg28
I911453
sg29
F0.21613857844757575
sg30
I4452476
sg31
F0.4008105738858723
ssS'FASTOW ANDREW S'
p265
(dp266
g3
g5
sg4
g5
sg6
I55921
sg7
I01
sg8
I-1386055
sg9
S'andrew.fastow@enron.com'
p267
sg11
I1736055
sg12
g5
sg13
g5
sg14
g5
sg15
g5
sg16
I277464
sg17
g34
sg18
g5
sg19
F0.3389984615384615
sg20
I1300000
sg21
I1794412
sg22
g5
sg23
g34
sg24
g5
sg25
g34
sg26
I1794412
sg27
I440698
sg28
I2424083
sg29
F0.6097810853222557
sg30
g5
sg31
F0.7402436302717358
ssS'FOY JOE'
p268
(dp269
g3
I57
sg4
I181755
sg6
g5
sg7
I00
sg8
g5
sg9
S'tracy.foy@enron.com'
p270
sg11
g5
sg12
g5
sg13
I2
sg14
g5
sg15
I13
sg16
g5
sg17
F0.0
sg18
g5
sg19
g34
sg20
g5
sg21
I343434
sg22
I0
sg23
F0.03508771929824561
sg24
I0
sg25
F0.0
sg26
g5
sg27
g5
sg28
I181755
sg29
g34
sg30
I343434
sg31
g34
ssS'CALGER CHRISTOPHER F'
p271
(dp272
g3
I2598
sg4
g5
sg6
I35818
sg7
I01
sg8
I-262500
sg9
S'christopher.calger@enron.com'
p273
sg11
I375304
sg12
g5
sg13
I2188
sg14
g5
sg15
I144
sg16
I486
sg17
F0.1736111111111111
sg18
g5
sg19
F0.1921512
sg20
I1250000
sg21
I126027
sg22
I199
sg23
F0.8421862971516552
sg24
I25
sg25
F0.07659738260200154
sg26
I126027
sg27
I240189
sg28
I1639297
sg29
F-0.2800895157703384
sg30
g5
sg31
F0.07687868641252928
ssS'RICE KENNETH D'
p274
(dp275
g3
I905
sg4
g5
sg6
I46950
sg7
I01
sg8
I-3504386
sg9
S'ken.rice@enron.com'
p276
sg11
I1617011
sg12
g5
sg13
I864
sg14
g5
sg15
I18
sg16
I174839
sg17
F0.2222222222222222
sg18
g5
sg19
F0.24036342857142856
sg20
I1750000
sg21
I22542539
sg22
I42
sg23
F0.9546961325966851
sg24
I4
sg25
F0.04640883977900553
sg26
I2748364
sg27
I420636
sg28
I505050
sg29
F0.8151678123144653
sg30
I19794175
sg31
F5.441766161766162
ssS'KAMINSKI WINCENTY J'
p277
(dp278
g3
I4607
sg4
g5
sg6
I83585
sg7
I00
sg8
g5
sg9
S'vince.kaminski@enron.com'
p279
sg11
I323466
sg12
g5
sg13
I583
sg14
g5
sg15
I14368
sg16
I4669
sg17
F0.011901447661469933
sg18
g5
sg19
F0.6877525
sg20
I400000
sg21
I976037
sg22
I41
sg23
F0.1265465595832429
sg24
I171
sg25
F0.008899500759713479
sg26
I126027
sg27
I275101
sg28
I1086821
sg29
F-0.33902857081420545
sg30
I850010
sg31
F0.11595929780525036
ssS'LOCKHART EUGENE E'
p280
(dp281
g3
g5
sg4
g5
sg6
g5
sg7
I00
sg8
g5
sg9
g5
sg11
g5
sg12
g5
sg13
g5
sg14
g5
sg15
g5
sg16
g5
sg17
g34
sg18
g5
sg19
g34
sg20
g5
sg21
g5
sg22
g5
sg23
g34
sg24
g5
sg25
g34
sg26
g5
sg27
g5
sg28
g5
sg29
g34
sg30
g5
sg31
g34
ssS'COX DAVID'
p282
(dp283
g3
I102
sg4
g5
sg6
I27861
sg7
I00
sg8
I-41250
sg9
S'chip.cox@enron.com'
p284
sg11
g5
sg12
g5
sg13
I71
sg14
g5
sg15
I33
sg16
I494
sg17
F0.12121212121212122
sg18
g5
sg19
F0.39286
sg20
I800000
sg21
I495633
sg22
I0
sg23
F0.696078431372549
sg24
I4
sg25
F0.0
sg26
I378082
sg27
I314288
sg28
I1101393
sg29
F0.08025820234861657
sg30
I117551
sg31
F0.34327619659830777
ssS'OVERDYKE JR JERE C'
p285
(dp286
g3
g5
sg4
g5
sg6
I18834
sg7
I00
sg8
g5
sg9
S'jere.overdyke@enron.com'
p287
sg11
I135836
sg12
g5
sg13
g5
sg14
g5
sg15
g5
sg16
I176
sg17
g34
sg18
g5
sg19
g34
sg20
g5
sg21
I7307594
sg22
g5
sg23
g34
sg24
g5
sg25
g34
sg26
I2041016
sg27
I94941
sg28
I249787
sg29
F1.33239260749684
sg30
I5266578
sg31
F8.17102571390825
ssS'PEREIRA PAULO V. FERRAZ'
p288
(dp289
g3
g5
sg4
g5
sg6
I27942
sg7
I00
sg8
I-101250
sg9
g5
sg11
g5
sg12
g5
sg13
g5
sg14
g5
sg15
g5
sg16
g5
sg17
g34
sg18
I101250
sg19
g34
sg20
g5
sg21
g5
sg22
g5
sg23
g34
sg24
g5
sg25
g34
sg26
g5
sg27
g5
sg28
I27942
sg29
g34
sg30
g5
sg31
g34
ssS'STABLER FRANK'
p290
(dp291
g3
g5
sg4
g5
sg6
I16514
sg7
I00
sg8
g5
sg9
S'frank.stabler@enron.com'
p292
sg11
g5
sg12
g5
sg13
g5
sg14
g5
sg15
g5
sg16
I356071
sg17
g34
sg18
g5
sg19
F0.479004
sg20
I500000
sg21
I511734
sg22
g5
sg23
g34
sg24
g5
sg25
g34
sg26
I511734
sg27
I239502
sg28
I1112087
sg29
F0.3297351283779716
sg30
g5
sg31
F0.46015644459471244
ssS'SKILLING JEFFREY K'
p293
(dp294
g3
I3627
sg4
g5
sg6
I29336
sg7
I01
sg8
g5
sg9
S'jeff.skilling@enron.com'
p295
sg11
I1920000
sg12
g5
sg13
I2042
sg14
g5
sg15
I108
sg16
I22122
sg17
F0.2777777777777778
sg18
g5
sg19
F0.19843892857142856
sg20
I5600000
sg21
I26093672
sg22
I88
sg23
F0.5629997242900469
sg24
I30
sg25
F0.0242624758753791
sg26
I6843672
sg27
I1111258
sg28
I8682716
sg29
F0.7894742862282899
sg30
I19250000
sg31
F0.7881948459445178
ssS'BLAKE JR. NORMAN P'
p296
(dp297
g3
g5
sg4
g5
sg6
I1279
sg7
I00
sg8
I-113784
sg9
g5
sg11
g5
sg12
g5
sg13
g5
sg14
g5
sg15
g5
sg16
g5
sg17
g34
sg18
I113784
sg19
g34
sg20
g5
sg21
g5
sg22
g5
sg23
g34
sg24
g5
sg25
g34
sg26
g5
sg27
g5
sg28
I1279
sg29
g34
sg30
g5
sg31
g34
ssS'SHERRICK JEFFREY B'
p298
(dp299
g3
I613
sg4
g5
sg6
g5
sg7
I00
sg8
g5
sg9
S'jeffrey.sherrick@enron.com'
p300
sg11
g5
sg12
g5
sg13
I583
sg14
g5
sg15
I25
sg16
g5
sg17
F0.72
sg18
g5
sg19
g34
sg20
g5
sg21
I1832468
sg22
I39
sg23
F0.9510603588907015
sg24
I18
sg25
F0.0636215334420881
sg26
I405999
sg27
g5
sg28
g5
sg29
g34
sg30
I1426469
sg31
g34
ssS'PRENTICE JAMES'
p301
(dp302
g3
g5
sg4
I564348
sg6
g5
sg7
I00
sg8
g5
sg9
S'james.prentice@enron.com'
p303
sg11
g5
sg12
g5
sg13
g5
sg14
g5
sg15
g5
sg16
g5
sg17
g34
sg18
g5
sg19
g34
sg20
g5
sg21
I1095040
sg22
g5
sg23
g34
sg24
g5
sg25
g34
sg26
I208809
sg27
g5
sg28
I564348
sg29
g34
sg30
I886231
sg31
F0.37000042526951454
ssS'GRAY RODNEY'
p304
(dp305
g3
g5
sg4
I93585
sg6
g5
sg7
I00
sg8
g5
sg9
g5
sg11
I365625
sg12
g5
sg13
g5
sg14
g5
sg15
g5
sg16
I680833
sg17
g34
sg18
g5
sg19
g34
sg20
g5
sg21
g5
sg22
g5
sg23
g34
sg24
g5
sg25
g34
sg26
g5
sg27
I6615
sg28
I1146658
sg29
g34
sg30
g5
sg31
g34
ssS'PICKERING MARK R'
p306
(dp307
g3
I898
sg4
g5
sg6
I31653
sg7
I00
sg8
g5
sg9
S'mark.pickering@enron.com'
p308
sg11
g5
sg12
g5
sg13
I728
sg14
I400000
sg15
I67
sg16
g5
sg17
F0.0
sg18
g5
sg19
F2.183456666666667
sg20
I300000
sg21
I28798
sg22
I7
sg23
F0.8106904231625836
sg24
I0
sg25
F0.0077951002227171495
sg26
g5
sg27
I655037
sg28
I1386690
sg29
g34
sg30
I28798
sg31
g34
ssS'NOLES JAMES L'
p309
(dp310
g3
g5
sg4
I774401
sg6
g5
sg7
I00
sg8
g5
sg9
g5
sg11
g5
sg12
I-94556
sg13
g5
sg14
g5
sg15
g5
sg16
g5
sg17
g34
sg18
g5
sg19
g34
sg20
g5
sg21
I368705
sg22
g5
sg23
g34
sg24
g5
sg25
g34
sg26
I463261
sg27
g5
sg28
I774401
sg29
g34
sg30
g5
sg31
F0.5982184940360356
ssS'KEAN STEVEN J'
p311
(dp312
g3
I12754
sg4
g5
sg6
I41953
sg7
I00
sg8
g5
sg9
S'steven.kean@enron.com'
p313
sg11
I300000
sg12
g5
sg13
I3639
sg14
g5
sg15
I6759
sg16
I1231
sg17
F0.05725699067909454
sg18
g5
sg19
F0.404338
sg20
I1000000
sg21
I6153642
sg22
I140
sg23
F0.2853222518425592
sg24
I387
sg25
F0.010976948408342482
sg26
I4131594
sg27
I404338
sg28
I1747522
sg29
F1.009373079474671
sg30
I2022048
sg31
F2.3642586473875578
ssS'FOWLER PEGGY'
p314
(dp315
g3
I517
sg4
g5
sg6
g5
sg7
I00
sg8
g5
sg9
S'kulvinder.fowler@enron.com'
p316
sg11
g5
sg12
g5
sg13
I10
sg14
g5
sg15
I36
sg16
g5
sg17
F0.0
sg18
g5
sg19
g34
sg20
g5
sg21
I1884748
sg22
I0
sg23
F0.019342359767891684
sg24
I0
sg25
F0.0
sg26
I560170
sg27
g5
sg28
g5
sg29
g34
sg30
I1324578
sg31
g34
ssS'WASAFF GEORGE'
p317
(dp318
g3
I400
sg4
I831299
sg6
g5
sg7
I00
sg8
I-583325
sg9
S'george.wasaff@enron.com'
p319
sg11
I200000
sg12
g5
sg13
I337
sg14
g5
sg15
I30
sg16
I1425
sg17
F0.23333333333333334
sg18
g5
sg19
F0.7999876923076923
sg20
I325000
sg21
I2056427
sg22
I22
sg23
F0.8425
sg24
I7
sg25
F0.055
sg26
I388167
sg27
I259996
sg28
I1034395
sg29
F0.1740519446300483
sg30
I1668260
sg31
F0.3752599345511144
ssS'WHITE JR THOMAS E'
p320
(dp321
g3
g5
sg4
g5
sg6
I81353
sg7
I00
sg8
g5
sg9
S'thomas.white@enron.com'
p322
sg11
g5
sg12
g5
sg13
g5
sg14
g5
sg15
g5
sg16
I1085463
sg17
g34
sg18
g5
sg19
F0.7056511111111111
sg20
I450000
sg21
I15144123
sg22
g5
sg23
g34
sg24
g5
sg25
g34
sg26
I13847074
sg27
I317543
sg28
I1934359
sg29
F1.6395554696378267
sg30
I1297049
sg31
F7.158481957072084
ssS'CHRISTODOULOU DIOMEDES'
p323
(dp324
g3
g5
sg4
g5
sg6
g5
sg7
I00
sg8
g5
sg9
S'diomedes.christodoulou@enron.com'
p325
sg11
g5
sg12
g5
sg13
g5
sg14
g5
sg15
g5
sg16
g5
sg17
g34
sg18
g5
sg19
g34
sg20
g5
sg21
I6077885
sg22
g5
sg23
g34
sg24
g5
sg25
g34
sg26
I950730
sg27
g5
sg28
g5
sg29
g34
sg30
I5127155
sg31
g34
ssS'ALLEN PHILLIP K'
p326
(dp327
g3
I2902
sg4
I2869717
sg6
I13868
sg7
I00
sg8
I-3081055
sg9
S'phillip.allen@enron.com'
p328
sg11
I304805
sg12
I-126027
sg13
I1407
sg14
g5
sg15
I2195
sg16
I152
sg17
F0.029612756264236904
sg18
g5
sg19
F0.04837245508982036
sg20
I4175000
sg21
I1729541
sg22
I47
sg23
F0.4848380427291523
sg24
I65
sg25
F0.016195727084769126
sg26
I126027
sg27
I201955
sg28
I4484442
sg29
F-0.20479101164662475
sg30
I1729541
sg31
F0.028103161998750348
ssS'SHARP VICTORIA T'
p329
(dp330
g3
I3136
sg4
I187469
sg6
I116337
sg7
I00
sg8
g5
sg9
S'vicki.sharp@enron.com'
p331
sg11
I422158
sg12
g5
sg13
I2477
sg14
g5
sg15
I136
sg16
I2401
sg17
F0.04411764705882353
sg18
g5
sg19
F0.41357666666666665
sg20
I600000
sg21
I494136
sg22
I24
sg23
F0.7898596938775511
sg24
I6
sg25
F0.007653061224489796
sg26
I213063
sg27
I248146
sg28
I1576511
sg29
F-0.06619924121806195
sg30
I281073
sg31
F0.13514843854562386
ssS'JAEDICKE ROBERT'
p332
(dp333
g3
g5
sg4
g5
sg6
g5
sg7
I00
sg8
I-25000
sg9
g5
sg11
g5
sg12
I-44093
sg13
g5
sg14
g5
sg15
g5
sg16
g5
sg17
g34
sg18
I108750
sg19
g34
sg20
g5
sg21
I431750
sg22
g5
sg23
g34
sg24
g5
sg25
g34
sg26
I44093
sg27
g5
sg28
I83750
sg29
g34
sg30
I431750
sg31
F0.5264835820895523
ssS'WINOKUR JR. HERBERT S'
p334
(dp335
g3
g5
sg4
g5
sg6
I1413
sg7
I00
sg8
I-25000
sg9
g5
sg11
g5
sg12
g5
sg13
g5
sg14
g5
sg15
g5
sg16
g5
sg17
g34
sg18
I108579
sg19
g34
sg20
g5
sg21
g5
sg22
g5
sg23
g34
sg24
g5
sg25
g34
sg26
g5
sg27
g5
sg28
I84992
sg29
g34
sg30
g5
sg31
g34
ssS'BROWN MICHAEL'
p336
(dp337
g3
I1486
sg4
g5
sg6
I49288
sg7
I00
sg8
g5
sg9
S'michael.brown@enron.com'
p338
sg11
g5
sg12
g5
sg13
I761
sg14
g5
sg15
I41
sg16
g5
sg17
F0.024390243902439025
sg18
g5
sg19
g34
sg20
g5
sg21
g5
sg22
I13
sg23
F0.5121130551816958
sg24
I1
sg25
F0.008748317631224764
sg26
g5
sg27
g5
sg28
I49288
sg29
g34
sg30
g5
sg31
g34
ssS'BADUM JAMES P'
p339
(dp340
g3
g5
sg4
I178980
sg6
I3486
sg7
I00
sg8
g5
sg9
g5
sg11
g5
sg12
g5
sg13
g5
sg14
g5
sg15
g5
sg16
g5
sg17
g34
sg18
g5
sg19
g34
sg20
g5
sg21
I257817
sg22
g5
sg23
g34
sg24
g5
sg25
g34
sg26
g5
sg27
g5
sg28
I182466
sg29
g34
sg30
I257817
sg31
g34
ssS'HUGHES JAMES A'
p341
(dp342
g3
I719
sg4
g5
sg6
g5
sg7
I00
sg8
g5
sg9
S'james.hughes@enron.com'
p343
sg11
g5
sg12
g5
sg13
I589
sg14
g5
sg15
I34
sg16
g5
sg17
F0.14705882352941177
sg18
g5
sg19
g34
sg20
g5
sg21
I1118394
sg22
I35
sg23
F0.8191933240611962
sg24
I5
sg25
F0.048678720445062586
sg26
I363428
sg27
g5
sg28
g5
sg29
g34
sg30
I754966
sg31
g34
ssS'REYNOLDS LAWRENCE'
p344
(dp345
g3
g5
sg4
I51365
sg6
I8409
sg7
I00
sg8
I-200000
sg9
g5
sg11
I156250
sg12
I-140264
sg13
g5
sg14
g5
sg15
g5
sg16
I202052
sg17
g34
sg18
g5
sg19
F0.76399
sg20
I100000
sg21
I4221891
sg22
g5
sg23
g34
sg24
g5
sg25
g34
sg26
I201483
sg27
I76399
sg28
I394475
sg29
F0.42115073464644115
sg30
I4160672
sg31
F0.5107624057291337
ssS'DIMICHELE RICHARD G'
p346
(dp347
g3
g5
sg4
g5
sg6
I35812
sg7
I00
sg8
g5
sg9
S'richard.dimichele@enron.com'
p348
sg11
I694862
sg12
g5
sg13
g5
sg14
g5
sg15
g5
sg16
I374689
sg17
g34
sg18
g5
sg19
F0.262788
sg20
I1000000
sg21
I8317782
sg22
g5
sg23
g34
sg24
g5
sg25
g34
sg26
I126027
sg27
I262788
sg28
I2368151
sg29
F-0.3191419313855057
sg30
I8191755
sg31
F0.05321746797395943
ssS'BHATNAGAR SANJAY'
p349
(dp350
g3
I523
sg4
g34
sg6
I137864
sg7
I00
sg8
g5
sg9
S'sanjay.bhatnagar@enron.com'
p351
sg11
g5
sg12
I-2604490
sg13
I463
sg14
g5
sg15
I29
sg16
g34
sg17
F0.034482758620689655
sg18
g34
sg19
g34
sg20
g5
sS'total_stock_value'
p352
I15456290
sg22
I0
sg23
F0.8852772466539197
sg24
I1
sg25
F0.0
sg26
I2604490
sg27
g5
sg28
I137864
sg29
g34
sg30
I15456290
sg31
F18.891733882666976
ssS'CARTER REBECCA C'
p353
(dp354
g3
I312
sg4
g5
sg6
g5
sg7
I00
sg8
I-159792
sg9
S'rebecca.carter@enron.com'
p355
sg11
I75000
sg12
I-307301
sg13
I196
sg14
g5
sg15
I15
sg16
I540
sg17
F0.4666666666666667
sg18
g5
sg19
F0.8726966666666667
sg20
I300000
sg21
g5
sg22
I29
sg23
F0.6282051282051282
sg24
I7
sg25
F0.09294871794871795
sg26
I307301
sg27
I261809
sg28
I477557
sg29
F0.0695794016453182
sg30
g5
sg31
F0.6434854896902359
ssS'BUCHANAN HAROLD G'
p356
(dp357
g3
I1088
sg4
g5
sg6
I600
sg7
I00
sg8
g5
sg9
S'john.buchanan@enron.com'
p358
sg11
I304805
sg12
g5
sg13
I23
sg14
g5
sg15
I125
sg16
I1215
sg17
F0.0
sg18
g5
sg19
F0.496034
sg20
I500000
sg21
I1014505
sg22
I0
sg23
F0.021139705882352942
sg24
I0
sg25
F0.0
sg26
I189041
sg27
I248017
sg28
I1054637
sg29
F-0.11792544400575096
sg30
I825464
sg31
F0.17924745670785303
ssS'YEAP SOON'
p359
(dp360
g3
g5
sg4
g5
sg6
I55097
sg7
I00
sg8
g5
sg9
g5
sg11
g5
sg12
g5
sg13
g5
sg14
g5
sg15
g5
sg16
g5
sg17
g34
sg18
g5
sg19
g34
sg20
g5
sg21
I192758
sg22
g5
sg23
g34
sg24
g5
sg25
g34
sg26
g5
sg27
g5
sg28
I55097
sg29
g34
sg30
I192758
sg31
g34
ssS'MURRAY JULIA H'
p361
(dp362
g3
I2192
sg4
g5
sg6
I57580
sg7
I00
sg8
g5
sg9
S'julia.murray@enron.com'
p363
sg11
I125000
sg12
g5
sg13
I395
sg14
g5
sg15
I45
sg16
I330
sg17
F0.044444444444444446
sg18
g5
sg19
F0.57321
sg20
I400000
sg21
I597461
sg22
I11
sg23
F0.1802007299270073
sg24
I2
sg25
F0.005018248175182482
sg26
I196983
sg27
I229284
sg28
I812194
sg29
F-0.06594500229727836
sg30
I400478
sg31
F0.24253195665075092
ssS'GARLAND C KEVIN'
p364
(dp365
g3
I209
sg4
g5
sg6
I48405
sg7
I00
sg8
g5
sg9
S'kevin.garland@enron.com'
p366
sg11
I375304
sg12
g5
sg13
I178
sg14
g5
sg15
I44
sg16
I60814
sg17
F0.6136363636363636
sg18
g5
sg19
F0.2728776470588235
sg20
I850000
sg21
I896153
sg22
I10
sg23
F0.8516746411483254
sg24
I27
sg25
F0.04784688995215311
sg26
I259907
sg27
I231946
sg28
I1566469
sg29
F0.04943108904590172
sg30
I636246
sg31
F0.16591901914433033
ssS'DODSON KEITH'
p367
(dp368
g3
I176
sg4
g5
sg6
I28164
sg7
I00
sg8
g5
sg9
S'keith.dodson@enron.com'
p369
sg11
g5
sg12
g5
sg13
I114
sg14
g5
sg15
I14
sg16
I774
sg17
F0.21428571428571427
sg18
g5
sg19
F3.1571857142857143
sg20
I70000
sg21
g5
sg22
I10
sg23
F0.6477272727272727
sg24
I3
sg25
F0.056818181818181816
sg26
g5
sg27
I221003
sg28
I319941
sg29
g34
sg30
g5
sg31
g34
ssS'YEAGER F SCOTT'
p370
(dp371
g3
g5
sg4
g5
sg6
I53947
sg7
I01
sg8
g5
sg9
S'scott.yeager@enron.com'
p372
sg11
g5
sg12
g5
sg13
g5
sg14
g5
sg15
g5
sg16
I147950
sg17
g34
sg18
g5
sg19
g34
sg20
g5
sg21
I11884758
sg22
g5
sg23
g34
sg24
g5
sg25
g34
sg26
I3576206
sg27
I158403
sg28
I360300
sg29
F1.3536591250360157
sg30
I8308552
sg31
F9.925634193727449
ssS'HIRKO JOSEPH'
p373
(dp374
g3
g5
sg4
I10259
sg6
I77978
sg7
I01
sg8
g5
sg9
S'joe.hirko@enron.com'
p375
sg11
g5
sg12
g5
sg13
g5
sg14
g5
sg15
g5
sg16
I2856
sg17
g34
sg18
g5
sg19
g34
sg20
g5
sg21
I30766064
sg22
g5
sg23
g34
sg24
g5
sg25
g34
sg26
g5
sg27
g5
sg28
I91093
sg29
g34
sg30
I30766064
sg31
g34
ssS'DIETRICH JANET R'
p376
(dp377
g3
I2572
sg4
g5
sg6
I3475
sg7
I00
sg8
g5
sg9
S'janet.dietrich@enron.com'
p378
sg11
I556416
sg12
g5
sg13
I1902
sg14
g5
sg15
I63
sg16
I473
sg17
F0.2222222222222222
sg18
g5
sg19
F0.41683333333333333
sg20
I600000
sg21
I1865087
sg22
I305
sg23
F0.73950233281493
sg24
I14
sg25
F0.11858475894245724
sg26
I315068
sg27
I250100
sg28
I1410464
sg29
F0.10029060440082646
sg30
I1550019
sg31
F0.22337897316060532
ssS'DERRICK JR. JAMES V'
p379
(dp380
g3
I2181
sg4
g5
sg6
I51124
sg7
I00
sg8
I-1284000
sg9
S'james.derrick@enron.com'
p381
sg11
I484000
sg12
I-1787380
sg13
I1401
sg14
g5
sg15
I909
sg16
I7482
sg17
F0.022002200220022004
sg18
g5
sg19
F0.61546875
sg20
I800000
sg21
I8831913
sg22
I64
sg23
F0.6423658872077029
sg24
I20
sg25
F0.029344337459880788
sg26
I1787380
sg27
I492375
sg28
I550981
sg29
F0.5599209002434822
sg30
I8831913
sg31
F3.2439957094709255
ssS'FREVERT MARK A'
p382
(dp383
g3
I3275
sg4
I6426990
sg6
I86987
sg7
I00
sg8
I-3367011
sg9
S'mark.frevert@enron.com'
p384
sg11
I1617011
sg12
g5
sg13
I2979
sg14
I2000000
sg15
I21
sg16
I7427621
sg17
F0.2857142857142857
sg18
g5
sg19
F0.530466
sg20
I2000000
sg21
I14622185
sg22
I242
sg23
F0.909618320610687
sg24
I6
sg25
F0.07389312977099237
sg26
I4188667
sg27
I1060932
sg28
I17252530
sg29
F0.5963882863540831
sg30
I10433518
sg31
F0.24278566679785515
ssS'PAI LOU L'
p385
(dp386
g3
g5
sg4
g5
sg6
I32047
sg7
I00
sg8
g5
sg9
S'lou.pai@enron.com'
p387
sg11
g5
sg12
g5
sg13
g5
sg14
g5
sg15
g5
sg16
I1829457
sg17
g34
sg18
g5
sg19
F0.261879
sg20
I1000000
sg21
I23817930
sg22
g5
sg23
g34
sg24
g5
sg25
g34
sg26
I8453763
sg27
I261879
sg28
I3123383
sg29
F1.508949394407153
sg30
I15364167
sg31
F2.7066046655181255
ssS'BAY FRANKLIN R'
p388
(dp389
g3
g5
sg4
I260455
sg6
I129142
sg7
I00
sg8
I-201641
sg9
S'frank.bay@enron.com'
p390
sg11
g5
sg12
I-82782
sg13
g5
sg14
g5
sg15
g5
sg16
I69
sg17
g34
sg18
g5
sg19
F0.5991775
sg20
I400000
sg21
I63014
sg22
g5
sg23
g34
sg24
g5
sg25
g34
sg26
I145796
sg27
I239671
sg28
I827696
sg29
F-0.21586987890848686
sg30
g5
sg31
F0.17614679785815082
ssS'HAYSLETT RODERICK J'
p391
(dp392
g3
I2649
sg4
g5
sg6
g5
sg7
I00
sg8
g5
sg9
S'rod.hayslett@enron.com'
p393
sg11
g5
sg12
g5
sg13
I571
sg14
g5
sg15
I1061
sg16
g5
sg17
F0.03581526861451461
sg18
g5
sg19
g34
sg20
g5
sg21
I346663
sg22
I35
sg23
F0.21555303888259722
sg24
I38
sg25
F0.01321253303133258
sg26
I346663
sg27
g5
sg28
g5
sg29
g34
sg30
g5
sg31
g34
ssS'FUGH JOHN L'
p394
(dp395
g3
g5
sg4
I50591
sg6
g5
sg7
I00
sg8
g5
sg9
g5
sg11
g5
sg12
g5
sg13
g5
sg14
g5
sg15
g5
sg16
g5
sg17
g34
sg18
g5
sg19
g34
sg20
g5
sg21
I176378
sg22
g5
sg23
g34
sg24
g5
sg25
g34
sg26
g5
sg27
g5
sg28
I50591
sg29
g34
sg30
I176378
sg31
g34
ssS'FALLON JAMES B'
p396
(dp397
g3
I1755
sg4
g5
sg6
I95924
sg7
I00
sg8
g5
sg9
S'jim.fallon@enron.com'
p398
sg11
I374347
sg12
g5
sg13
I1604
sg14
g5
sg15
I75
sg16
I401481
sg17
F0.49333333333333335
sg18
g5
sg19
F0.1218352
sg20
I2500000
sg21
I2332399
sg22
I42
sg23
F0.913960113960114
sg24
I37
sg25
F0.023931623931623933
sg26
I1392142
sg27
I304588
sg28
I3676340
sg29
F0.6599707468156508
sg30
I940257
sg31
F0.37867607457416885
ssS'KOENIG MARK E'
p399
(dp400
g3
I2374
sg4
g5
sg6
I127017
sg7
I01
sg8
g5
sg9
S'mark.koenig@enron.com'
p401
sg11
I300000
sg12
g5
sg13
I2271
sg14
g5
sg15
I61
sg16
I150458
sg17
F0.2459016393442623
sg18
g5
sg19
F0.44278
sg20
I700000
sg21
I1920055
sg22
I53
sg23
F0.9566133108677338
sg24
I15
sg25
F0.02232518955349621
sg26
I1248318
sg27
I309946
sg28
I1587421
sg29
F0.6050391968771294
sg30
I671737
sg31
F0.7863811805437877
ssS'SAVAGE FRANK'
p402
(dp403
g3
g5
sg4
g5
sg6
g5
sg7
I00
sg8
I-121284
sg9
g5
sg11
g5
sg12
g5
sg13
g5
sg14
g5
sg15
g5
sg16
g5
sg17
g34
sg18
I125034
sg19
g34
sg20
g5
sg21
g5
sg22
g5
sg23
g34
sg24
g5
sg25
g34
sg26
g5
sg27
g5
sg28
I3750
sg29
g34
sg30
g5
sg31
g34
ssS'IZZO LAWRENCE L'
p404
(dp405
g3
I496
sg4
g5
sg6
I28093
sg7
I00
sg8
g5
sg9
S'larry.izzo@enron.com'
p406
sg11
I312500
sg12
g5
sg13
I437
sg14
g5
sg15
I19
sg16
I1553729
sg17
F0.2631578947368421
sg18
g5
sg19
g34
sg20
g5
sg21
I5819980
sg22
I28
sg23
F0.8810483870967742
sg24
I5
sg25
F0.056451612903225805
sg26
I3654808
sg27
I85274
sg28
I1979596
sg29
F1.6320479316872076
sg30
I2165172
sg31
F1.846239333682226
ssS'TILNEY ELIZABETH A'
p407
(dp408
g3
I460
sg4
g5
sg6
g5
sg7
I00
sg8
I-575000
sg9
S'elizabeth.tilney@enron.com'
p409
sg11
I275000
sg12
g5
sg13
I379
sg14
g5
sg15
I19
sg16
I152055
sg17
F0.5789473684210527
sg18
g5
sg19
F0.82446
sg20
I300000
sg21
I1168042
sg22
I10
sg23
F0.8239130434782609
sg24
I11
sg25
F0.021739130434782608
sg26
I576792
sg27
I247338
sg28
I399393
sg29
F0.3677283834502018
sg30
I591250
sg31
F1.444171530297226
ssS'MARTIN AMANDA K'
p410
(dp411
g3
I1522
sg4
I85430
sg6
I8211
sg7
I00
sg8
g5
sg9
S'a..martin@enron.com'
p412
sg11
I5145434
sg12
g5
sg13
I477
sg14
g5
sg15
I230
sg16
I2818454
sg17
F0.0
sg18
g5
sg19
g34
sg20
g5
sg21
I2070306
sg22
I8
sg23
F0.31340341655716164
sg24
I0
sg25
F0.005256241787122208
sg26
g5
sg27
I349487
sg28
I8407016
sg29
g34
sg30
I2070306
sg31
g34
ssS'BUY RICHARD B'
p413
(dp414
g3
I3523
sg4
I649584
sg6
g5
sg7
I00
sg8
I-694862
sg9
S'rick.buy@enron.com'
p415
sg11
I769862
sg12
g5
sg13
I2333
sg14
g5
sg15
I1053
sg16
I400572
sg17
F0.06742640075973409
sg18
g5
sg19
F0.36727333333333334
sg20
I900000
sg21
I3444470
sg22
I156
sg23
F0.6622196991200682
sg24
I71
sg25
F0.04428044280442804
sg26
I901657
sg27
I330546
sg28
I2355702
sg29
F0.4358094526271209
sg30
I2542813
sg31
F0.38275511928079187
ssS'GRAMM WENDY L'
p416
(dp417
g3
g5
sg4
g5
sg6
g5
sg7
I00
sg8
g5
sg9
g5
sg11
g5
sg12
g5
sg13
g5
sg14
g5
sg15
g5
sg16
g5
sg17
g34
sg18
I119292
sg19
g34
sg20
g5
sg21
g5
sg22
g5
sg23
g34
sg24
g5
sg25
g34
sg26
g5
sg27
g5
sg28
I119292
sg29
g34
sg30
g5
sg31
g34
ssS'CAUSEY RICHARD A'
p418
(dp419
g3
I1892
sg4
g5
sg6
I30674
sg7
I01
sg8
I-235000
sg9
S'richard.causey@enron.com'
p420
sg11
I350000
sg12
g5
sg13
I1585
sg14
g5
sg15
I49
sg16
I307895
sg17
F0.24489795918367346
sg18
g5
sg19
F0.415189
sg20
I1000000
sg21
I2502063
sg22
I58
sg23
F0.837737843551797
sg24
I12
sg25
F0.0306553911205074
sg26
I2502063
sg27
I415189
sg28
I1868758
sg29
F0.7800524018793101
sg30
g5
sg31
F1.338890856922084
ssS'TAYLOR MITCHELL S'
p421
(dp422
g3
I533
sg4
I227449
sg6
g5
sg7
I00
sg8
g5
sg9
S'mitchell.taylor@enron.com'
p423
sg11
g5
sg12
g5
sg13
I300
sg14
g5
sg15
I29
sg16
g5
sg17
F0.0
sg18
g5
sg19
F0.4420233333333333
sg20
I600000
sg21
I3745048
sg22
I0
sg23
F0.5628517823639775
sg24
I0
sg25
F0.0
sg26
I563798
sg27
I265214
sg28
I1092663
sg29
F0.32752708525121915
sg30
I3181250
sg31
F0.515985258034728
ssS'DONAHUE JR JEFFREY M'
p424
(dp425
g3
I865
sg4
g5
sg6
I96268
sg7
I00
sg8
I-300000
sg9
S'jeff.donahue@enron.com'
p426
sg11
g5
sg12
g5
sg13
I772
sg14
g5
sg15
I22
sg16
I891
sg17
F0.5
sg18
g5
sg19
F0.34825125
sg20
I800000
sg21
I1080988
sg22
I188
sg23
F0.892485549132948
sg24
I11
sg25
F0.21734104046242775
sg26
I315068
sg27
I278601
sg28
I875760
sg29
F0.05342162520023107
sg30
I765920
sg31
F0.3597652324837855
ssS'GLISAN JR BEN F'
p427
(dp428
g3
I873
sg4
g5
sg6
I125978
sg7
I01
sg8
g5
sg9
S'ben.glisan@enron.com'
p429
sg11
I71023
sg12
g5
sg13
I874
sg14
g5
sg15
I16
sg16
I200308
sg17
F0.375
sg18
g5
sg19
F0.45829166666666665
sg20
I600000
sg21
I778546
sg22
I52
sg23
F1.0011454753722795
sg24
I6
sg25
F0.05956471935853379
sg26
I393818
sg27
I274975
sg28
I1272284
sg29
F0.15600235157069853
sg30
I384728
sg31
F0.30953623562034893
ss.