(lp0
S'poi'
p1
aS'salary'
p2
aS'total_stock_value'
p3
aS'exercised_stock_options'
p4
aS'to_poi_ratio'
p5
aS'bonus'
p6
aS'total_payments'
p7
aS'shared_receipt_with_poi_ratio'
p8
aS'shared_receipt_with_poi'
p9
aS'from_poi_to_this_person'
p10
aS'from_poi_ratio'
p11
aS'from_this_person_to_poi'
p12
aS'to_messages'
p13
aS'from_messages'
p14
aS'restricted_stock_v_total_payments'
p15
aS'restricted_stock_v_salary'
p16
aS'salary_v_bonus'
p17
a.